; ModuleID = 'source-C-CXX/30/1455.c'
source_filename = "source-C-CXX/30/1455.c"
target datalayout = "e-m:e-p270:32:32-p271:32:32-p272:64:64-i64:64-f80:128-n8:16:32:64-S128"
target triple = "x86_64-pc-linux-gnu"

%struct.info = type { [30 x i8], [30 x i8], i8, i32, float, [30 x i8], %struct.info* }

@n = dso_local local_unnamed_addr global i32 0, align 4
@.str = private unnamed_addr constant [3 x i8] c"%s\00", align 1
@.str.1 = private unnamed_addr constant [4 x i8] c"end\00", align 1
@.str.2 = private unnamed_addr constant [15 x i8] c"%s %c %d %f %s\00", align 1
@.str.3 = private unnamed_addr constant [19 x i8] c"%s %s %c %d %g %s\0A\00", align 1

; Function Attrs: nofree nounwind sspstrong uwtable
define dso_local %struct.info* @creat() local_unnamed_addr #0 {
  store i32 0, i32* @n, align 4, !tbaa !5
  %1 = tail call noalias align 16 dereferenceable_or_null(100) i8* @malloc(i64 100) #4
  %2 = bitcast i8* %1 to %struct.info*
  %3 = getelementptr inbounds %struct.info, %struct.info* %2, i64 0, i32 0
  %4 = tail call i32 (i8*, ...) @__isoc99_scanf(i8* getelementptr inbounds ([3 x i8], [3 x i8]* @.str, i64 0, i64 0), [30 x i8]* %3)
  %5 = getelementptr inbounds %struct.info, %struct.info* %2, i64 0, i32 0, i64 0
  %6 = tail call i32 @strcmp(i8* noundef nonnull dereferenceable(1) %5, i8* noundef nonnull dereferenceable(4) getelementptr inbounds ([4 x i8], [4 x i8]* @.str.1, i64 0, i64 0)) #5
  %7 = icmp eq i32 %6, 0
  br i1 %7, label %29, label %8

8:                                                ; preds = %0, %8
  %9 = phi %struct.info* [ %23, %8 ], [ %2, %0 ]
  %10 = phi %struct.info* [ %9, %8 ], [ %2, %0 ]
  %11 = getelementptr inbounds %struct.info, %struct.info* %9, i64 0, i32 1
  %12 = getelementptr inbounds %struct.info, %struct.info* %9, i64 0, i32 2
  %13 = getelementptr inbounds %struct.info, %struct.info* %9, i64 0, i32 3
  %14 = getelementptr inbounds %struct.info, %struct.info* %9, i64 0, i32 4
  %15 = getelementptr inbounds %struct.info, %struct.info* %9, i64 0, i32 5
  %16 = tail call i32 (i8*, ...) @__isoc99_scanf(i8* getelementptr inbounds ([15 x i8], [15 x i8]* @.str.2, i64 0, i64 0), [30 x i8]* nonnull %11, i8* nonnull %12, i32* nonnull %13, float* nonnull %14, [30 x i8]* nonnull %15)
  %17 = load i32, i32* @n, align 4, !tbaa !5
  %18 = add nsw i32 %17, 1
  store i32 %18, i32* @n, align 4, !tbaa !5
  %19 = icmp eq i32 %17, 0
  %20 = select i1 %19, %struct.info* null, %struct.info* %10
  %21 = getelementptr inbounds %struct.info, %struct.info* %9, i64 0, i32 6
  store %struct.info* %20, %struct.info** %21, align 8
  %22 = tail call noalias align 16 dereferenceable_or_null(100) i8* @malloc(i64 100) #4
  %23 = bitcast i8* %22 to %struct.info*
  %24 = getelementptr inbounds %struct.info, %struct.info* %23, i64 0, i32 0
  %25 = tail call i32 (i8*, ...) @__isoc99_scanf(i8* getelementptr inbounds ([3 x i8], [3 x i8]* @.str, i64 0, i64 0), [30 x i8]* %24)
  %26 = getelementptr inbounds %struct.info, %struct.info* %23, i64 0, i32 0, i64 0
  %27 = tail call i32 @strcmp(i8* noundef nonnull dereferenceable(1) %26, i8* noundef nonnull dereferenceable(4) getelementptr inbounds ([4 x i8], [4 x i8]* @.str.1, i64 0, i64 0)) #5
  %28 = icmp eq i32 %27, 0
  br i1 %28, label %29, label %8, !llvm.loop !9

29:                                               ; preds = %8, %0
  %30 = phi %struct.info* [ %2, %0 ], [ %9, %8 ]
  ret %struct.info* %30
}

; Function Attrs: inaccessiblememonly mustprogress nofree nounwind willreturn
declare noalias noundef align 16 i8* @malloc(i64 noundef) local_unnamed_addr #1

; Function Attrs: nofree nounwind
declare noundef i32 @__isoc99_scanf(i8* nocapture noundef readonly, ...) local_unnamed_addr #2

; Function Attrs: argmemonly mustprogress nofree nounwind readonly willreturn
declare i32 @strcmp(i8* nocapture, i8* nocapture) local_unnamed_addr #3

; Function Attrs: nofree nounwind sspstrong uwtable
define dso_local void @print(%struct.info* %0) local_unnamed_addr #0 {
  %2 = icmp eq %struct.info* %0, null
  br i1 %2, label %20, label %3

3:                                                ; preds = %1, %3
  %4 = phi %struct.info* [ %18, %3 ], [ %0, %1 ]
  %5 = getelementptr inbounds %struct.info, %struct.info* %4, i64 0, i32 0, i64 0
  %6 = getelementptr inbounds %struct.info, %struct.info* %4, i64 0, i32 1, i64 0
  %7 = getelementptr inbounds %struct.info, %struct.info* %4, i64 0, i32 2
  %8 = load i8, i8* %7, align 4, !tbaa !11
  %9 = sext i8 %8 to i32
  %10 = getelementptr inbounds %struct.info, %struct.info* %4, i64 0, i32 3
  %11 = load i32, i32* %10, align 8, !tbaa !15
  %12 = getelementptr inbounds %struct.info, %struct.info* %4, i64 0, i32 4
  %13 = load float, float* %12, align 4, !tbaa !16
  %14 = fpext float %13 to double
  %15 = getelementptr inbounds %struct.info, %struct.info* %4, i64 0, i32 5, i64 0
  %16 = tail call i32 (i8*, ...) @printf(i8* nonnull dereferenceable(1) getelementptr inbounds ([19 x i8], [19 x i8]* @.str.3, i64 0, i64 0), i8* %5, i8* nonnull %6, i32 %9, i32 %11, double %14, i8* nonnull %15)
  %17 = getelementptr inbounds %struct.info, %struct.info* %4, i64 0, i32 6
  %18 = load %struct.info*, %struct.info** %17, align 8, !tbaa !17
  %19 = icmp eq %struct.info* %18, null
  br i1 %19, label %20, label %3, !llvm.loop !18

20:                                               ; preds = %3, %1
  ret void
}

; Function Attrs: nofree nounwind
declare noundef i32 @printf(i8* nocapture noundef readonly, ...) local_unnamed_addr #2

; Function Attrs: nofree nounwind sspstrong uwtable
define dso_local void @main() local_unnamed_addr #0 {
  %1 = tail call %struct.info* @creat()
  %2 = icmp eq %struct.info* %1, null
  br i1 %2, label %20, label %3

3:                                                ; preds = %0, %3
  %4 = phi %struct.info* [ %18, %3 ], [ %1, %0 ]
  %5 = getelementptr inbounds %struct.info, %struct.info* %4, i64 0, i32 0, i64 0
  %6 = getelementptr inbounds %struct.info, %struct.info* %4, i64 0, i32 1, i64 0
  %7 = getelementptr inbounds %struct.info, %struct.info* %4, i64 0, i32 2
  %8 = load i8, i8* %7, align 4, !tbaa !11
  %9 = sext i8 %8 to i32
  %10 = getelementptr inbounds %struct.info, %struct.info* %4, i64 0, i32 3
  %11 = load i32, i32* %10, align 8, !tbaa !15
  %12 = getelementptr inbounds %struct.info, %struct.info* %4, i64 0, i32 4
  %13 = load float, float* %12, align 4, !tbaa !16
  %14 = fpext float %13 to double
  %15 = getelementptr inbounds %struct.info, %struct.info* %4, i64 0, i32 5, i64 0
  %16 = tail call i32 (i8*, ...) @printf(i8* nonnull dereferenceable(1) getelementptr inbounds ([19 x i8], [19 x i8]* @.str.3, i64 0, i64 0), i8* %5, i8* nonnull %6, i32 %9, i32 %11, double %14, i8* nonnull %15) #4
  %17 = getelementptr inbounds %struct.info, %struct.info* %4, i64 0, i32 6
  %18 = load %struct.info*, %struct.info** %17, align 8, !tbaa !17
  %19 = icmp eq %struct.info* %18, null
  br i1 %19, label %20, label %3, !llvm.loop !18

20:                                               ; preds = %3, %0
  ret void
}


!llvm.module.flags = !{!0, !1, !2, !3}
!llvm.ident = !{!4}

!0 = !{i32 1, !"wchar_size", i32 4}
!1 = !{i32 7, !"PIC Level", i32 2}
!2 = !{i32 7, !"PIE Level", i32 2}
!3 = !{i32 7, !"uwtable", i32 1}
!4 = !{!"clang version 13.0.0"}
!5 = !{!6, !6, i64 0}
!6 = !{!"int", !7, i64 0}
!7 = !{!"omnipotent char", !8, i64 0}
!8 = !{!"Simple C/C++ TBAA"}
!9 = distinct !{!9, !10}
!10 = !{!"llvm.loop.mustprogress"}
!11 = !{!12, !7, i64 60}
!12 = !{!"info", !7, i64 0, !7, i64 30, !7, i64 60, !6, i64 64, !13, i64 68, !7, i64 72, !14, i64 104}
!13 = !{!"float", !7, i64 0}
!14 = !{!"any pointer", !7, i64 0}
!15 = !{!12, !6, i64 64}
!16 = !{!12, !13, i64 68}
!17 = !{!12, !14, i64 104}
!18 = distinct !{!18, !10}
